target datalayout = "e-m:e-p270:32:32-p271:32:32-p272:64:64-i64:64-i128:128-f80:128-n8:16:32:64-S128"
target triple = "x86_64-pc-linux-gnu"

%struct._object = type { %union.anon, ptr }
%union.anon = type { i64 }
%struct._locale_state = type { ptr }
%struct._typeobject = type { %struct.PyVarObject, ptr, i64, i64, ptr, i64, ptr, ptr, ptr, ptr, ptr, ptr, ptr, ptr, ptr, ptr, ptr, ptr, ptr, i64, ptr, ptr, ptr, ptr, i64, ptr, ptr, ptr, ptr, ptr, ptr, ptr, ptr, ptr, i64, ptr, ptr, ptr, ptr, ptr, ptr, ptr, ptr, ptr, ptr, ptr, i32, ptr, ptr, i8, i16 }
%struct.PyVarObject = type { %struct._object, i64 }

@.str.1 = private unnamed_addr constant [10 x i8] c"setlocale\00", align 1
@_Py_NoneStruct = external global %struct._object, align 8
@PyExc_ValueError = external global ptr, align 8
@.str.14 = private unnamed_addr constant [24 x i8] c"embedded null character\00", align 1
@.str.15 = private unnamed_addr constant [11 x i8] c"argument 2\00", align 1
@.str.16 = private unnamed_addr constant [12 x i8] c"str or None\00", align 1
@.str.17 = private unnamed_addr constant [27 x i8] c"unsupported locale setting\00", align 1
@.str.18 = private unnamed_addr constant [20 x i8] c"locale query failed\00", align 1

; Function Attrs: inlinehint nounwind uwtable
define internal ptr @get_locale_state(ptr noundef %0) #3 {
  %2 = alloca ptr, align 8
  %3 = alloca ptr, align 8
  store ptr %0, ptr %2, align 8, !tbaa !4
  call void @llvm.lifetime.start.p0(i64 8, ptr %3) #9
  %4 = load ptr, ptr %2, align 8, !tbaa !4
  %5 = call ptr @PyModule_GetState(ptr noundef %4)
  store ptr %5, ptr %3, align 8, !tbaa !9
  %6 = load ptr, ptr %3, align 8, !tbaa !9
  call void @llvm.lifetime.end.p0(i64 8, ptr %3) #9
  ret ptr %6
}

; Function Attrs: nounwind uwtable
define internal ptr @_locale_setlocale_impl(ptr noundef %0, i32 noundef %1, ptr noundef %2) #0 {
  %4 = alloca ptr, align 8
  %5 = alloca ptr, align 8
  %6 = alloca i32, align 4
  %7 = alloca ptr, align 8
  %8 = alloca ptr, align 8
  %9 = alloca ptr, align 8
  %10 = alloca i32, align 4
  store ptr %0, ptr %5, align 8, !tbaa !4
  store i32 %1, ptr %6, align 4, !tbaa !14
  store ptr %2, ptr %7, align 8, !tbaa !20
  call void @llvm.lifetime.start.p0(i64 8, ptr %8) #9
  call void @llvm.lifetime.start.p0(i64 8, ptr %9) #9
  %11 = load ptr, ptr %7, align 8, !tbaa !20
  %12 = icmp ne ptr %11, null
  br i1 %12, label %13, label %31

13:                                               ; preds = %3
  %14 = load i32, ptr %6, align 4, !tbaa !14
  %15 = load ptr, ptr %7, align 8, !tbaa !20
  %16 = call ptr @setlocale(i32 noundef %14, ptr noundef %15) #9
  store ptr %16, ptr %8, align 8, !tbaa !20
  %17 = load ptr, ptr %8, align 8, !tbaa !20
  %18 = icmp ne ptr %17, null
  br i1 %18, label %24, label %19

19:                                               ; preds = %13
  %20 = load ptr, ptr %5, align 8, !tbaa !4
  %21 = call ptr @get_locale_state(ptr noundef %20)
  %22 = getelementptr inbounds nuw %struct._locale_state, ptr %21, i32 0, i32 0
  %23 = load ptr, ptr %22, align 8, !tbaa !12
  call void @PyErr_SetString(ptr noundef %23, ptr noundef @.str.17)
  store ptr null, ptr %4, align 8
  store i32 1, ptr %10, align 4
  br label %46

24:                                               ; preds = %13
  %25 = load ptr, ptr %8, align 8, !tbaa !20
  %26 = call ptr @PyUnicode_DecodeLocale(ptr noundef %25, ptr noundef null)
  store ptr %26, ptr %9, align 8, !tbaa !4
  %27 = load ptr, ptr %9, align 8, !tbaa !4
  %28 = icmp ne ptr %27, null
  br i1 %28, label %30, label %29

29:                                               ; preds = %24
  store ptr null, ptr %4, align 8
  store i32 1, ptr %10, align 4
  br label %46

30:                                               ; preds = %24
  br label %44

31:                                               ; preds = %3
  %32 = load i32, ptr %6, align 4, !tbaa !14
  %33 = call ptr @setlocale(i32 noundef %32, ptr noundef null) #9
  store ptr %33, ptr %8, align 8, !tbaa !20
  %34 = load ptr, ptr %8, align 8, !tbaa !20
  %35 = icmp ne ptr %34, null
  br i1 %35, label %41, label %36

36:                                               ; preds = %31
  %37 = load ptr, ptr %5, align 8, !tbaa !4
  %38 = call ptr @get_locale_state(ptr noundef %37)
  %39 = getelementptr inbounds nuw %struct._locale_state, ptr %38, i32 0, i32 0
  %40 = load ptr, ptr %39, align 8, !tbaa !12
  call void @PyErr_SetString(ptr noundef %40, ptr noundef @.str.18)
  store ptr null, ptr %4, align 8
  store i32 1, ptr %10, align 4
  br label %46

41:                                               ; preds = %31
  %42 = load ptr, ptr %8, align 8, !tbaa !20
  %43 = call ptr @PyUnicode_DecodeLocale(ptr noundef %42, ptr noundef null)
  store ptr %43, ptr %9, align 8, !tbaa !4
  br label %44

44:                                               ; preds = %41, %30
  %45 = load ptr, ptr %9, align 8, !tbaa !4
  store ptr %45, ptr %4, align 8
  store i32 1, ptr %10, align 4
  br label %46

46:                                               ; preds = %44, %36, %29, %19
  call void @llvm.lifetime.end.p0(i64 8, ptr %9) #9
  call void @llvm.lifetime.end.p0(i64 8, ptr %8) #9
  %47 = load ptr, ptr %4, align 8
  ret ptr %47
}

; Function Attrs: inlinehint nounwind uwtable
define internal i32 @PyType_HasFeature(ptr noundef %0, i64 noundef %1) #3 {
  %3 = alloca ptr, align 8
  %4 = alloca i64, align 8
  %5 = alloca i64, align 8
  store ptr %0, ptr %3, align 8, !tbaa !22
  store i64 %1, ptr %4, align 8, !tbaa !18
  call void @llvm.lifetime.start.p0(i64 8, ptr %5) #9
  %6 = load ptr, ptr %3, align 8, !tbaa !22
  %7 = getelementptr inbounds nuw %struct._typeobject, ptr %6, i32 0, i32 19
  %8 = load i64, ptr %7, align 8, !tbaa !24
  store i64 %8, ptr %5, align 8, !tbaa !18
  %9 = load i64, ptr %5, align 8, !tbaa !18
  %10 = load i64, ptr %4, align 8, !tbaa !18
  %11 = and i64 %9, %10
  %12 = icmp ne i64 %11, 0
  %13 = zext i1 %12 to i32
  call void @llvm.lifetime.end.p0(i64 8, ptr %5) #9
  ret i32 %13
}

; Function Attrs: inlinehint nounwind uwtable
define internal ptr @_Py_TYPE(ptr noundef %0) #3 {
  %2 = alloca ptr, align 8
  store ptr %0, ptr %2, align 8, !tbaa !4
  %3 = load ptr, ptr %2, align 8, !tbaa !4
  %4 = getelementptr inbounds nuw %struct._object, ptr %3, i32 0, i32 1
  %5 = load ptr, ptr %4, align 8, !tbaa !32
  ret ptr %5
}

; Function Attrs: nounwind uwtable
define internal ptr @_locale_setlocale(ptr noundef %0, ptr noundef %1, i64 noundef %2) #0 {
  %4 = alloca ptr, align 8
  %5 = alloca ptr, align 8
  %6 = alloca ptr, align 8
  %7 = alloca i64, align 8
  %8 = alloca ptr, align 8
  %9 = alloca i32, align 4
  %10 = alloca ptr, align 8
  %11 = alloca i64, align 8
  %12 = alloca i32, align 4
  store ptr %0, ptr %5, align 8, !tbaa !4
  store ptr %1, ptr %6, align 8, !tbaa !16
  store i64 %2, ptr %7, align 8, !tbaa !18
  call void @llvm.lifetime.start.p0(i64 8, ptr %8) #9
  store ptr null, ptr %8, align 8, !tbaa !4
  call void @llvm.lifetime.start.p0(i64 4, ptr %9) #9
  call void @llvm.lifetime.start.p0(i64 8, ptr %10) #9
  store ptr null, ptr %10, align 8, !tbaa !20
  %13 = load i64, ptr %7, align 8, !tbaa !18
  %14 = icmp sle i64 1, %13
  br i1 %14, label %15, label %18

15:                                               ; preds = %3
  %16 = load i64, ptr %7, align 8, !tbaa !18
  %17 = icmp sle i64 %16, 2
  br i1 %17, label %23, label %18

18:                                               ; preds = %15, %3
  %19 = load i64, ptr %7, align 8, !tbaa !18
  %20 = call i32 @_PyArg_CheckPositional(ptr noundef @.str.1, i64 noundef %19, i64 noundef 1, i64 noundef 2)
  %21 = icmp ne i32 %20, 0
  br i1 %21, label %23, label %22

22:                                               ; preds = %18
  br label %81

23:                                               ; preds = %18, %15
  %24 = load ptr, ptr %6, align 8, !tbaa !16
  %25 = getelementptr ptr, ptr %24, i64 0
  %26 = load ptr, ptr %25, align 8, !tbaa !4
  %27 = call i32 @PyLong_AsInt(ptr noundef %26)
  store i32 %27, ptr %9, align 4, !tbaa !14
  %28 = load i32, ptr %9, align 4, !tbaa !14
  %29 = icmp eq i32 %28, -1
  br i1 %29, label %30, label %34

30:                                               ; preds = %23
  %31 = call ptr @PyErr_Occurred()
  %32 = icmp ne ptr %31, null
  br i1 %32, label %33, label %34

33:                                               ; preds = %30
  br label %81

34:                                               ; preds = %30, %23
  %35 = load i64, ptr %7, align 8, !tbaa !18
  %36 = icmp slt i64 %35, 2
  br i1 %36, label %37, label %38

37:                                               ; preds = %34
  br label %76

38:                                               ; preds = %34
  %39 = load ptr, ptr %6, align 8, !tbaa !16
  %40 = getelementptr ptr, ptr %39, i64 1
  %41 = load ptr, ptr %40, align 8, !tbaa !4
  %42 = icmp eq ptr %41, @_Py_NoneStruct
  br i1 %42, label %43, label %44

43:                                               ; preds = %38
  store ptr null, ptr %10, align 8, !tbaa !20
  br label %75

44:                                               ; preds = %38
  %45 = load ptr, ptr %6, align 8, !tbaa !16
  %46 = getelementptr ptr, ptr %45, i64 1
  %47 = load ptr, ptr %46, align 8, !tbaa !4
  %48 = call ptr @_Py_TYPE(ptr noundef %47)
  %49 = call i32 @PyType_HasFeature(ptr noundef %48, i64 noundef 268435456)
  %50 = icmp ne i32 %49, 0
  br i1 %50, label %51, label %70

51:                                               ; preds = %44
  call void @llvm.lifetime.start.p0(i64 8, ptr %11) #9
  %52 = load ptr, ptr %6, align 8, !tbaa !16
  %53 = getelementptr ptr, ptr %52, i64 1
  %54 = load ptr, ptr %53, align 8, !tbaa !4
  %55 = call ptr @PyUnicode_AsUTF8AndSize(ptr noundef %54, ptr noundef %11)
  store ptr %55, ptr %10, align 8, !tbaa !20
  %56 = load ptr, ptr %10, align 8, !tbaa !20
  %57 = icmp eq ptr %56, null
  br i1 %57, label %58, label %59

58:                                               ; preds = %51
  store i32 2, ptr %12, align 4
  br label %67

59:                                               ; preds = %51
  %60 = load ptr, ptr %10, align 8, !tbaa !20
  %61 = call i64 @strlen(ptr noundef %60) #10
  %62 = load i64, ptr %11, align 8, !tbaa !18
  %63 = icmp ne i64 %61, %62
  br i1 %63, label %64, label %66

64:                                               ; preds = %59
  %65 = load ptr, ptr @PyExc_ValueError, align 8, !tbaa !4
  call void @PyErr_SetString(ptr noundef %65, ptr noundef @.str.14)
  store i32 2, ptr %12, align 4
  br label %67

66:                                               ; preds = %59
  store i32 0, ptr %12, align 4
  br label %67

67:                                               ; preds = %64, %58, %66
  call void @llvm.lifetime.end.p0(i64 8, ptr %11) #9
  %68 = load i32, ptr %12, align 4
  switch i32 %68, label %83 [
    i32 0, label %69
    i32 2, label %81
  ]

69:                                               ; preds = %67
  br label %74

70:                                               ; preds = %44
  %71 = load ptr, ptr %6, align 8, !tbaa !16
  %72 = getelementptr ptr, ptr %71, i64 1
  %73 = load ptr, ptr %72, align 8, !tbaa !4
  call void @_PyArg_BadArgument(ptr noundef @.str.1, ptr noundef @.str.15, ptr noundef @.str.16, ptr noundef %73)
  br label %81

74:                                               ; preds = %69
  br label %75

75:                                               ; preds = %74, %43
  br label %76

76:                                               ; preds = %75, %37
  %77 = load ptr, ptr %5, align 8, !tbaa !4
  %78 = load i32, ptr %9, align 4, !tbaa !14
  %79 = load ptr, ptr %10, align 8, !tbaa !20
  %80 = call ptr @_locale_setlocale_impl(ptr noundef %77, i32 noundef %78, ptr noundef %79)
  store ptr %80, ptr %8, align 8, !tbaa !4
  br label %81

81:                                               ; preds = %76, %67, %70, %33, %22
  %82 = load ptr, ptr %8, align 8, !tbaa !4
  store ptr %82, ptr %4, align 8
  store i32 1, ptr %12, align 4
  br label %83

83:                                               ; preds = %81, %67
  call void @llvm.lifetime.end.p0(i64 8, ptr %10) #9
  call void @llvm.lifetime.end.p0(i64 4, ptr %9) #9
  call void @llvm.lifetime.end.p0(i64 8, ptr %8) #9
  %84 = load ptr, ptr %4, align 8
  ret ptr %84
}