; Function Attrs: nounwind uwtable
define internal ptr @_locale_setlocale(ptr noundef %0, ptr noundef readonly captures(none) %1, i64 noundef %2) #0 {
  %4 = alloca i64, align 8
  %5 = add i64 %2, -1
  %or.cond = icmp ult i64 %5, 2
  br i1 %or.cond, label %8, label %6

6:                                                ; preds = %3
  %7 = tail call i32 @_PyArg_CheckPositional(ptr noundef nonnull @.str.1, i64 noundef %2, i64 noundef 1, i64 noundef 2) #8
  %.not = icmp eq i32 %7, 0
  br i1 %.not, label %_locale_setlocale_impl.exit, label %8

8:                                                ; preds = %3, %6
  %9 = load ptr, ptr %1, align 8, !tbaa !10
  %10 = tail call i32 @PyLong_AsInt(ptr noundef %9) #8
  %11 = icmp eq i32 %10, -1
  br i1 %11, label %12, label %14

12:                                               ; preds = %8
  %13 = tail call ptr @PyErr_Occurred() #8
  %.not23 = icmp eq ptr %13, null
  br i1 %.not23, label %14, label %_locale_setlocale_impl.exit

14:                                               ; preds = %12, %8
  %15 = icmp slt i64 %2, 2
  br i1 %15, label %40, label %16

16:                                               ; preds = %14
  %17 = getelementptr i8, ptr %1, i64 8
  %18 = load ptr, ptr %17, align 8, !tbaa !10
  %19 = icmp eq ptr %18, @_Py_NoneStruct
  br i1 %19, label %40, label %20

20:                                               ; preds = %16
  %21 = getelementptr i8, ptr %18, i64 8
  %.val = load ptr, ptr %21, align 8, !tbaa !12
  %22 = getelementptr i8, ptr %.val, i64 168
  %.val27 = load i64, ptr %22, align 8, !tbaa !15
  %23 = and i64 %.val27, 268435456
  %.not24 = icmp eq i64 %23, 0
  br i1 %.not24, label %32, label %24

24:                                               ; preds = %20
  call void @llvm.lifetime.start.p0(i64 8, ptr nonnull %4) #8
  %25 = call ptr @PyUnicode_AsUTF8AndSize(ptr noundef %18, ptr noundef nonnull %4) #8
  %26 = icmp eq ptr %25, null
  br i1 %26, label %.thread, label %27

27:                                               ; preds = %24
  %28 = call i64 @strlen(ptr noundef nonnull dereferenceable(1) %25) #9
  %29 = load i64, ptr %4, align 8, !tbaa !25
  %.not25 = icmp eq i64 %28, %29
  br i1 %.not25, label %33, label %30

30:                                               ; preds = %27
  %31 = load ptr, ptr @PyExc_ValueError, align 8, !tbaa !10
  call void @PyErr_SetString(ptr noundef %31, ptr noundef nonnull @.str.14) #8
  br label %.thread

.thread:                                          ; preds = %30, %24
  call void @llvm.lifetime.end.p0(i64 8, ptr nonnull %4) #8
  br label %_locale_setlocale_impl.exit

32:                                               ; preds = %20
  tail call void @_PyArg_BadArgument(ptr noundef nonnull @.str.1, ptr noundef nonnull @.str.15, ptr noundef nonnull @.str.16, ptr noundef %18) #8
  br label %_locale_setlocale_impl.exit

33:                                               ; preds = %27
  call void @llvm.lifetime.end.p0(i64 8, ptr nonnull %4) #8
  %34 = call ptr @setlocale(i32 noundef %10, ptr noundef nonnull %25) #8
  %.not18.i = icmp eq ptr %34, null
  br i1 %.not18.i, label %35, label %38

35:                                               ; preds = %33
  %36 = call ptr @PyModule_GetState(ptr noundef %0) #8
  %37 = load ptr, ptr %36, align 8, !tbaa !4
  call void @PyErr_SetString(ptr noundef %37, ptr noundef nonnull @.str.17) #8
  br label %_locale_setlocale_impl.exit

38:                                               ; preds = %33
  %39 = call ptr @PyUnicode_DecodeLocale(ptr noundef nonnull %34, ptr noundef null) #8
  br label %_locale_setlocale_impl.exit

40:                                               ; preds = %14, %16
  %41 = tail call ptr @setlocale(i32 noundef %10, ptr noundef null) #8
  %.not17.i = icmp eq ptr %41, null
  br i1 %.not17.i, label %42, label %45

42:                                               ; preds = %40
  %43 = tail call ptr @PyModule_GetState(ptr noundef %0) #8
  %44 = load ptr, ptr %43, align 8, !tbaa !4
  tail call void @PyErr_SetString(ptr noundef %44, ptr noundef nonnull @.str.18) #8
  br label %_locale_setlocale_impl.exit

45:                                               ; preds = %40
  %46 = tail call ptr @PyUnicode_DecodeLocale(ptr noundef nonnull %41, ptr noundef null) #8
  br label %_locale_setlocale_impl.exit

_locale_setlocale_impl.exit:                      ; preds = %45, %42, %38, %35, %.thread, %32, %6, %12
  %.020 = phi ptr [ null, %12 ], [ null, %32 ], [ null, %6 ], [ null, %.thread ], [ null, %35 ], [ null, %42 ], [ %46, %45 ], [ %39, %38 ]
  ret ptr %.020
}